target datalayout = "e-m:e-p270:32:32-p271:32:32-p272:64:64-i64:64-i128:128-f80:128-n8:16:32:64-S128"
target triple = "x86_64-pc-linux-gnu"

%"class.std::__cxx11::basic_string" = type { %"struct.std::__cxx11::basic_string<char>::_Alloc_hider", i64, %union.anon }
%"struct.std::__cxx11::basic_string<char>::_Alloc_hider" = type { ptr }
%union.anon = type { i64, [8 x i8] }
%"struct.std::_Vector_base.7" = type { %"struct.std::_Vector_base<Assimp::Q3BSP::sQ3BSPFace *, std::allocator<Assimp::Q3BSP::sQ3BSPFace *>>::_Vector_impl" }
%"struct.std::_Vector_base<Assimp::Q3BSP::sQ3BSPFace *, std::allocator<Assimp::Q3BSP::sQ3BSPFace *>>::_Vector_impl" = type { %"struct.std::_Vector_base<Assimp::Q3BSP::sQ3BSPFace *, std::allocator<Assimp::Q3BSP::sQ3BSPFace *>>::_Vector_impl_data" }
%"struct.std::_Vector_base<Assimp::Q3BSP::sQ3BSPFace *, std::allocator<Assimp::Q3BSP::sQ3BSPFace *>>::_Vector_impl_data" = type { ptr, ptr, ptr }
%"class.std::vector.17" = type { %"struct.std::_Vector_base.18" }
%"struct.std::_Vector_base.18" = type { %"struct.std::_Vector_base<char, std::allocator<char>>::_Vector_impl" }
%"struct.std::_Vector_base<char, std::allocator<char>>::_Vector_impl" = type { %"struct.std::_Vector_base<char, std::allocator<char>>::_Vector_impl_data" }
%"struct.std::_Vector_base<char, std::allocator<char>>::_Vector_impl_data" = type { ptr, ptr, ptr }
%struct.aiScene = type { i32, ptr, i32, ptr, i32, ptr, i32, ptr, i32, ptr, i32, ptr, i32, ptr, ptr, %struct.aiString, i32, ptr, ptr }
%struct.aiString = type { i32, [1024 x i8] }
%"struct.Assimp::Q3BSP::Q3BSPModel" = type { %"class.std::vector.19", %"class.std::vector.24", %"class.std::vector.29", %"class.std::vector.6", %"class.std::vector.34", %"class.std::vector.39", %"class.std::vector.44", %"class.std::vector.17", %"class.std::__cxx11::basic_string" }
%"class.std::vector.19" = type { %"struct.std::_Vector_base.20" }
%"struct.std::_Vector_base.20" = type { %"struct.std::_Vector_base<unsigned char, std::allocator<unsigned char>>::_Vector_impl" }
%"struct.std::_Vector_base<unsigned char, std::allocator<unsigned char>>::_Vector_impl" = type { %"struct.std::_Vector_base<unsigned char, std::allocator<unsigned char>>::_Vector_impl_data" }
%"struct.std::_Vector_base<unsigned char, std::allocator<unsigned char>>::_Vector_impl_data" = type { ptr, ptr, ptr }
%"class.std::vector.24" = type { %"struct.std::_Vector_base.25" }
%"struct.std::_Vector_base.25" = type { %"struct.std::_Vector_base<Assimp::Q3BSP::sQ3BSPLump *, std::allocator<Assimp::Q3BSP::sQ3BSPLump *>>::_Vector_impl" }
%"struct.std::_Vector_base<Assimp::Q3BSP::sQ3BSPLump *, std::allocator<Assimp::Q3BSP::sQ3BSPLump *>>::_Vector_impl" = type { %"struct.std::_Vector_base<Assimp::Q3BSP::sQ3BSPLump *, std::allocator<Assimp::Q3BSP::sQ3BSPLump *>>::_Vector_impl_data" }
%"struct.std::_Vector_base<Assimp::Q3BSP::sQ3BSPLump *, std::allocator<Assimp::Q3BSP::sQ3BSPLump *>>::_Vector_impl_data" = type { ptr, ptr, ptr }
%"class.std::vector.29" = type { %"struct.std::_Vector_base.30" }
%"struct.std::_Vector_base.30" = type { %"struct.std::_Vector_base<Assimp::Q3BSP::sQ3BSPVertex *, std::allocator<Assimp::Q3BSP::sQ3BSPVertex *>>::_Vector_impl" }
%"struct.std::_Vector_base<Assimp::Q3BSP::sQ3BSPVertex *, std::allocator<Assimp::Q3BSP::sQ3BSPVertex *>>::_Vector_impl" = type { %"struct.std::_Vector_base<Assimp::Q3BSP::sQ3BSPVertex *, std::allocator<Assimp::Q3BSP::sQ3BSPVertex *>>::_Vector_impl_data" }
%"struct.std::_Vector_base<Assimp::Q3BSP::sQ3BSPVertex *, std::allocator<Assimp::Q3BSP::sQ3BSPVertex *>>::_Vector_impl_data" = type { ptr, ptr, ptr }
%"class.std::vector.6" = type { %"struct.std::_Vector_base.7" }
%"class.std::vector.34" = type { %"struct.std::_Vector_base.35" }
%"struct.std::_Vector_base.35" = type { %"struct.std::_Vector_base<int, std::allocator<int>>::_Vector_impl" }
%"struct.std::_Vector_base<int, std::allocator<int>>::_Vector_impl" = type { %"struct.std::_Vector_base<int, std::allocator<int>>::_Vector_impl_data" }
%"struct.std::_Vector_base<int, std::allocator<int>>::_Vector_impl_data" = type { ptr, ptr, ptr }
%"class.std::vector.39" = type { %"struct.std::_Vector_base.40" }
%"struct.std::_Vector_base.40" = type { %"struct.std::_Vector_base<Assimp::Q3BSP::sQ3BSPTexture *, std::allocator<Assimp::Q3BSP::sQ3BSPTexture *>>::_Vector_impl" }
%"struct.std::_Vector_base<Assimp::Q3BSP::sQ3BSPTexture *, std::allocator<Assimp::Q3BSP::sQ3BSPTexture *>>::_Vector_impl" = type { %"struct.std::_Vector_base<Assimp::Q3BSP::sQ3BSPTexture *, std::allocator<Assimp::Q3BSP::sQ3BSPTexture *>>::_Vector_impl_data" }
%"struct.std::_Vector_base<Assimp::Q3BSP::sQ3BSPTexture *, std::allocator<Assimp::Q3BSP::sQ3BSPTexture *>>::_Vector_impl_data" = type { ptr, ptr, ptr }
%"class.std::vector.44" = type { %"struct.std::_Vector_base.45" }
%"struct.std::_Vector_base.45" = type { %"struct.std::_Vector_base<Assimp::Q3BSP::sQ3BSPLightmap *, std::allocator<Assimp::Q3BSP::sQ3BSPLightmap *>>::_Vector_impl" }
%"struct.std::_Vector_base<Assimp::Q3BSP::sQ3BSPLightmap *, std::allocator<Assimp::Q3BSP::sQ3BSPLightmap *>>::_Vector_impl" = type { %"struct.std::_Vector_base<Assimp::Q3BSP::sQ3BSPLightmap *, std::allocator<Assimp::Q3BSP::sQ3BSPLightmap *>>::_Vector_impl_data" }
%"struct.std::_Vector_base<Assimp::Q3BSP::sQ3BSPLightmap *, std::allocator<Assimp::Q3BSP::sQ3BSPLightmap *>>::_Vector_impl_data" = type { ptr, ptr, ptr }
%struct.aiNode = type { %struct.aiString, %class.aiMatrix4x4t, ptr, i32, ptr, i32, ptr, ptr }
%class.aiMatrix4x4t = type { float, float, float, float, float, float, float, float, float, float, float, float, float, float, float, float }

; Function Attrs: mustprogress nounwind uwtable
define available_externally noundef ptr @_ZNKSt7__cxx1112basic_stringIcSt11char_traitsIcESaIcEE7_M_dataEv(ptr noundef nonnull align 8 dereferenceable(32) %0) #0 align 2 {
  %2 = alloca ptr, align 8
  store ptr %0, ptr %2, align 8
  %3 = load ptr, ptr %2, align 8
  %4 = getelementptr inbounds nuw %"class.std::__cxx11::basic_string", ptr %3, i32 0, i32 0
  %5 = getelementptr inbounds nuw %"struct.std::__cxx11::basic_string<char>::_Alloc_hider", ptr %4, i32 0, i32 0
  %6 = load ptr, ptr %5, align 8
  ret ptr %6
}

; Function Attrs: mustprogress nounwind uwtable
define available_externally noundef ptr @_ZNKSt7__cxx1112basic_stringIcSt11char_traitsIcESaIcEE5c_strEv(ptr noundef nonnull align 8 dereferenceable(32) %0) #0 align 2 {
  %2 = alloca ptr, align 8
  store ptr %0, ptr %2, align 8
  %3 = load ptr, ptr %2, align 8
  %4 = call noundef ptr @_ZNKSt7__cxx1112basic_stringIcSt11char_traitsIcESaIcEE7_M_dataEv(ptr noundef nonnull align 8 dereferenceable(32) %3)
  ret ptr %4
}

; Function Attrs: mustprogress nounwind uwtable
define available_externally noundef i64 @_ZNKSt7__cxx1112basic_stringIcSt11char_traitsIcESaIcEE6lengthEv(ptr noundef nonnull align 8 dereferenceable(32) %0) #0 align 2 {
  %2 = alloca ptr, align 8
  store ptr %0, ptr %2, align 8
  %3 = load ptr, ptr %2, align 8
  %4 = getelementptr inbounds nuw %"class.std::__cxx11::basic_string", ptr %3, i32 0, i32 1
  %5 = load i64, ptr %4, align 8
  ret i64 %5
}

; Function Attrs: mustprogress nounwind uwtable
define available_externally noundef i64 @_ZNKSt7__cxx1112basic_stringIcSt11char_traitsIcESaIcEE4sizeEv(ptr noundef nonnull align 8 dereferenceable(32) %0) #0 align 2 {
  %2 = alloca ptr, align 8
  store ptr %0, ptr %2, align 8
  %3 = load ptr, ptr %2, align 8
  %4 = getelementptr inbounds nuw %"class.std::__cxx11::basic_string", ptr %3, i32 0, i32 1
  %5 = load i64, ptr %4, align 8
  ret i64 %5
}

; Function Attrs: mustprogress nounwind uwtable
define linkonce_odr hidden void @_ZN8aiString3SetERKNSt7__cxx1112basic_stringIcSt11char_traitsIcESaIcEEE(ptr noundef nonnull align 4 dereferenceable(1028) %0, ptr noundef nonnull align 8 dereferenceable(32) %1) #0 comdat align 2 {
  %3 = alloca ptr, align 8
  %4 = alloca ptr, align 8
  store ptr %0, ptr %3, align 8
  store ptr %1, ptr %4, align 8
  %5 = load ptr, ptr %3, align 8
  %6 = load ptr, ptr %4, align 8
  %7 = call noundef i64 @_ZNKSt7__cxx1112basic_stringIcSt11char_traitsIcESaIcEE6lengthEv(ptr noundef nonnull align 8 dereferenceable(32) %6) #18
  %8 = icmp ugt i64 %7, 1023
  br i1 %8, label %9, label %10

9:                                                ; preds = %2
  br label %27

10:                                               ; preds = %2
  %11 = load ptr, ptr %4, align 8
  %12 = call noundef i64 @_ZNKSt7__cxx1112basic_stringIcSt11char_traitsIcESaIcEE6lengthEv(ptr noundef nonnull align 8 dereferenceable(32) %11) #18
  %13 = trunc i64 %12 to i32
  %14 = getelementptr inbounds nuw %struct.aiString, ptr %5, i32 0, i32 0
  store i32 %13, ptr %14, align 4
  %15 = getelementptr inbounds nuw %struct.aiString, ptr %5, i32 0, i32 1
  %16 = getelementptr inbounds [1024 x i8], ptr %15, i64 0, i64 0
  %17 = load ptr, ptr %4, align 8
  %18 = call noundef ptr @_ZNKSt7__cxx1112basic_stringIcSt11char_traitsIcESaIcEE5c_strEv(ptr noundef nonnull align 8 dereferenceable(32) %17) #18
  %19 = getelementptr inbounds nuw %struct.aiString, ptr %5, i32 0, i32 0
  %20 = load i32, ptr %19, align 4
  %21 = zext i32 %20 to i64
  call void @llvm.memcpy.p0.p0.i64(ptr align 4 %16, ptr align 1 %18, i64 %21, i1 false)
  %22 = getelementptr inbounds nuw %struct.aiString, ptr %5, i32 0, i32 1
  %23 = getelementptr inbounds nuw %struct.aiString, ptr %5, i32 0, i32 0
  %24 = load i32, ptr %23, align 4
  %25 = zext i32 %24 to i64
  %26 = getelementptr inbounds nuw [1024 x i8], ptr %22, i64 0, i64 %25
  store i8 0, ptr %26, align 1
  br label %27

27:                                               ; preds = %10, %9
  ret void
}

; Function Attrs: mustprogress nounwind uwtable
define available_externally noundef zeroext i1 @_ZNKSt7__cxx1112basic_stringIcSt11char_traitsIcESaIcEE5emptyEv(ptr noundef nonnull align 8 dereferenceable(32) %0) #0 align 2 {
  %2 = alloca ptr, align 8
  store ptr %0, ptr %2, align 8
  %3 = load ptr, ptr %2, align 8
  %4 = call noundef i64 @_ZNKSt7__cxx1112basic_stringIcSt11char_traitsIcESaIcEE4sizeEv(ptr noundef nonnull align 8 dereferenceable(32) %3) #18
  %5 = icmp eq i64 %4, 0
  ret i1 %5
}

; Function Attrs: mustprogress uwtable
define hidden void @_ZN6Assimp17Q3BSPFileImporter20CreateDataFromImportEPKNS_5Q3BSP10Q3BSPModelEP7aiScenePNS_18ZipArchiveIOSystemE(ptr noundef nonnull align 8 dereferenceable(160) %0, ptr noundef %1, ptr noundef %2, ptr noundef %3) #5 align 2 personality ptr @__gxx_personality_v0 {
  %5 = alloca ptr, align 8
  %6 = alloca ptr, align 8
  %7 = alloca ptr, align 8
  %8 = alloca ptr, align 8
  %9 = alloca ptr, align 8
  %10 = alloca i32, align 4
  store ptr %0, ptr %5, align 8
  store ptr %1, ptr %6, align 8
  store ptr %2, ptr %7, align 8
  store ptr %3, ptr %8, align 8
  %11 = load ptr, ptr %5, align 8
  %12 = load ptr, ptr %6, align 8
  %13 = icmp eq ptr null, %12
  br i1 %13, label %17, label %14

14:                                               ; preds = %4
  %15 = load ptr, ptr %7, align 8
  %16 = icmp eq ptr null, %15
  br i1 %16, label %17, label %18

17:                                               ; preds = %14, %4
  br label %47

18:                                               ; preds = %14
  %19 = call noalias noundef nonnull ptr @_Znwm(i64 noundef 1144) #23
  invoke void @_ZN6aiNodeC1Ev(ptr noundef nonnull align 8 dereferenceable(1144) %19)
          to label %20 unwind label %33

20:                                               ; preds = %18
  %21 = load ptr, ptr %7, align 8
  %22 = getelementptr inbounds nuw %struct.aiScene, ptr %21, i32 0, i32 1
  store ptr %19, ptr %22, align 8
  %23 = load ptr, ptr %6, align 8
  %24 = getelementptr inbounds nuw %"struct.Assimp::Q3BSP::Q3BSPModel", ptr %23, i32 0, i32 8
  %25 = call noundef zeroext i1 @_ZNKSt7__cxx1112basic_stringIcSt11char_traitsIcESaIcEE5emptyEv(ptr noundef nonnull align 8 dereferenceable(32) %24) #18
  br i1 %25, label %37, label %26

26:                                               ; preds = %20
  %27 = load ptr, ptr %7, align 8
  %28 = getelementptr inbounds nuw %struct.aiScene, ptr %27, i32 0, i32 1
  %29 = load ptr, ptr %28, align 8
  %30 = getelementptr inbounds nuw %struct.aiNode, ptr %29, i32 0, i32 0
  %31 = load ptr, ptr %6, align 8
  %32 = getelementptr inbounds nuw %"struct.Assimp::Q3BSP::Q3BSPModel", ptr %31, i32 0, i32 8
  call void @_ZN8aiString3SetERKNSt7__cxx1112basic_stringIcSt11char_traitsIcESaIcEEE(ptr noundef nonnull align 4 dereferenceable(1028) %30, ptr noundef nonnull align 8 dereferenceable(32) %32)
  br label %37

33:                                               ; preds = %18
  %34 = landingpad { ptr, i32 }
          cleanup
  %35 = extractvalue { ptr, i32 } %34, 0
  store ptr %35, ptr %9, align 8
  %36 = extractvalue { ptr, i32 } %34, 1
  store i32 %36, ptr %10, align 4
  call void @_ZdlPvm(ptr noundef %19, i64 noundef 1144) #20
  br label %48

37:                                               ; preds = %26, %20
  %38 = load ptr, ptr %6, align 8
  call void @_ZN6Assimp17Q3BSPFileImporter17createMaterialMapEPKNS_5Q3BSP10Q3BSPModelE(ptr noundef nonnull align 8 dereferenceable(160) %11, ptr noundef %38)
  %39 = load ptr, ptr %6, align 8
  %40 = load ptr, ptr %7, align 8
  %41 = load ptr, ptr %7, align 8
  %42 = getelementptr inbounds nuw %struct.aiScene, ptr %41, i32 0, i32 1
  %43 = load ptr, ptr %42, align 8
  call void @_ZN6Assimp17Q3BSPFileImporter11CreateNodesEPKNS_5Q3BSP10Q3BSPModelEP7aiSceneP6aiNode(ptr noundef nonnull align 8 dereferenceable(160) %11, ptr noundef %39, ptr noundef %40, ptr noundef %43)
  %44 = load ptr, ptr %6, align 8
  %45 = load ptr, ptr %7, align 8
  %46 = load ptr, ptr %8, align 8
  call void @_ZN6Assimp17Q3BSPFileImporter15createMaterialsEPKNS_5Q3BSP10Q3BSPModelEP7aiScenePNS_18ZipArchiveIOSystemE(ptr noundef nonnull align 8 dereferenceable(160) %11, ptr noundef %44, ptr noundef %45, ptr noundef %46)
  br label %47

47:                                               ; preds = %37, %17
  ret void

48:                                               ; preds = %33
  %49 = load ptr, ptr %9, align 8
  %50 = load i32, ptr %10, align 4
  %51 = insertvalue { ptr, i32 } poison, ptr %49, 0
  %52 = insertvalue { ptr, i32 } %51, i32 %50, 1
  resume { ptr, i32 } %52
}