; Function Attrs: mustprogress uwtable
define hidden void @_ZN6Assimp17Q3BSPFileImporter20CreateDataFromImportEPKNS_5Q3BSP10Q3BSPModelEP7aiScenePNS_18ZipArchiveIOSystemE(ptr noundef nonnull align 8 dereferenceable(160) %0, ptr noundef captures(address_is_null) %1, ptr noundef captures(address_is_null) %2, ptr noundef %3) local_unnamed_addr #6 align 2 personality ptr @__gxx_personality_v0 {
  %5 = icmp eq ptr %1, null
  %6 = icmp eq ptr %2, null
  %or.cond = or i1 %5, %6
  br i1 %or.cond, label %23, label %7

7:                                                ; preds = %4
  %8 = tail call noalias noundef nonnull dereferenceable(1144) ptr @_Znwm(i64 noundef 1144) #30
  invoke void @_ZN6aiNodeC1Ev(ptr noundef nonnull align 8 dereferenceable(1144) %8)
          to label %9 unwind label %20

9:                                                ; preds = %7
  %10 = getelementptr inbounds nuw i8, ptr %2, i64 8
  store ptr %8, ptr %10, align 8
  %11 = getelementptr inbounds nuw i8, ptr %1, i64 200
  %12 = load i64, ptr %11, align 8
  %13 = add i64 %12, -1024
  %or.cond17 = icmp ult i64 %13, -1023
  br i1 %or.cond17, label %_ZN8aiString3SetERKNSt7__cxx1112basic_stringIcSt11char_traitsIcESaIcEEE.exit, label %14

14:                                               ; preds = %9
  %15 = getelementptr inbounds nuw i8, ptr %1, i64 192
  %16 = trunc nuw i64 %12 to i32
  store i32 %16, ptr %8, align 4
  %17 = getelementptr inbounds nuw i8, ptr %8, i64 4
  %18 = load ptr, ptr %15, align 8
  tail call void @llvm.memcpy.p0.p0.i64(ptr nonnull align 4 %17, ptr align 1 %18, i64 %12, i1 false)
  %19 = getelementptr inbounds nuw [1024 x i8], ptr %17, i64 0, i64 %12
  store i8 0, ptr %19, align 1
  br label %_ZN8aiString3SetERKNSt7__cxx1112basic_stringIcSt11char_traitsIcESaIcEEE.exit

20:                                               ; preds = %7
  %21 = landingpad { ptr, i32 }
          cleanup
  tail call void @_ZdlPvm(ptr noundef nonnull %8, i64 noundef 1144) #26
  resume { ptr, i32 } %21

_ZN8aiString3SetERKNSt7__cxx1112basic_stringIcSt11char_traitsIcESaIcEEE.exit: ; preds = %14, %9
  tail call void @_ZN6Assimp17Q3BSPFileImporter17createMaterialMapEPKNS_5Q3BSP10Q3BSPModelE(ptr noundef nonnull align 8 dereferenceable(160) %0, ptr noundef nonnull %1)
  %22 = load ptr, ptr %10, align 8
  tail call void @_ZN6Assimp17Q3BSPFileImporter11CreateNodesEPKNS_5Q3BSP10Q3BSPModelEP7aiSceneP6aiNode(ptr noundef nonnull align 8 dereferenceable(160) %0, ptr noundef nonnull %1, ptr noundef nonnull %2, ptr noundef %22)
  tail call void @_ZN6Assimp17Q3BSPFileImporter15createMaterialsEPKNS_5Q3BSP10Q3BSPModelEP7aiScenePNS_18ZipArchiveIOSystemE(ptr noundef nonnull align 8 dereferenceable(160) %0, ptr noundef nonnull %1, ptr noundef nonnull %2, ptr noundef %3)
  br label %23

23:                                               ; preds = %4, %_ZN8aiString3SetERKNSt7__cxx1112basic_stringIcSt11char_traitsIcESaIcEEE.exit
  ret void
}